; Function Attrs: mustprogress nounwind uwtable
define dso_local noundef zeroext i1 @_ZN7cmCTest13CheckArgumentERKNSt7__cxx1112basic_stringIcSt11char_traitsIcESaIcEEESt17basic_string_viewIcS3_EPKc(ptr noundef nonnull align 8 dereferenceable(32) %0, i64 %1, ptr nocapture readonly %2, ptr noundef %3) local_unnamed_addr #10 align 2 personality ptr @__gxx_personality_v0 {
  %5 = tail call { i64, ptr } @_ZNKSt7__cxx1112basic_stringIcSt11char_traitsIcESaIcEEcvSt17basic_string_viewIcS2_EEv(ptr noundef nonnull align 8 dereferenceable(32) %0) #28
  %6 = extractvalue { i64, ptr } %5, 0
  %7 = extractvalue { i64, ptr } %5, 1
  %8 = icmp eq i64 %6, %1
  br i1 %8, label %9, label %12

9:                                                ; preds = %4
  %10 = icmp eq i64 %1, 0
  br i1 %10, label %_ZSteqIcSt11char_traitsIcEEbNSt15__type_identityISt17basic_string_viewIT_T0_EE4typeES6_.exit, label %_ZNSt11char_traitsIcE7compareEPKcS2_m.exit.i.i

_ZNSt11char_traitsIcE7compareEPKcS2_m.exit.i.i:   ; preds = %9
  %bcmp.i = tail call i32 @bcmp(ptr %7, ptr %2, i64 %1)
  %11 = icmp eq i32 %bcmp.i, 0
  br i1 %11, label %_ZSteqIcSt11char_traitsIcEEbNSt15__type_identityISt17basic_string_viewIT_T0_EE4typeES6_.exit, label %12

12:                                               ; preds = %4, %_ZNSt11char_traitsIcE7compareEPKcS2_m.exit.i.i
  %.not = icmp eq ptr %3, null
  br i1 %.not, label %_ZSteqIcSt11char_traitsIcEEbNSt15__type_identityISt17basic_string_viewIT_T0_EE4typeES6_.exit, label %13

13:                                               ; preds = %12
  %14 = tail call noundef i32 @_ZNKSt7__cxx1112basic_stringIcSt11char_traitsIcESaIcEE7compareEPKc(ptr noundef nonnull align 8 dereferenceable(32) %0, ptr noundef nonnull %3) #28
  %15 = icmp eq i32 %14, 0
  br label %_ZSteqIcSt11char_traitsIcEEbNSt15__type_identityISt17basic_string_viewIT_T0_EE4typeES6_.exit

_ZSteqIcSt11char_traitsIcEEbNSt15__type_identityISt17basic_string_viewIT_T0_EE4typeES6_.exit: ; preds = %_ZNSt11char_traitsIcE7compareEPKcS2_m.exit.i.i, %9, %12, %13
  %16 = phi i1 [ false, %12 ], [ %15, %13 ], [ true, %9 ], [ true, %_ZNSt11char_traitsIcE7compareEPKcS2_m.exit.i.i ]
  ret i1 %16
}